target datalayout = "e-m:e-p270:32:32-p271:32:32-p272:64:64-i64:64-i128:128-f80:128-n8:16:32:64-S128"
target triple = "x86_64-pc-linux-gnu"

%struct.RateControlEntry = type { i32, float, i32, i32, i32, i32, i32, i32, i32, i32, i64, i32, float, i64, i64 }

@.str.41 = private unnamed_addr constant [10 x i8] c"bits<0.9\0A\00", align 1

; Function Attrs: inlinehint nounwind uwtable
define internal double @bits2qp(ptr noundef %0, double noundef %1) #9 {
  %3 = alloca ptr, align 8
  %4 = alloca double, align 8
  store ptr %0, ptr %3, align 8, !tbaa !114
  store double %1, ptr %4, align 8, !tbaa !102
  %5 = load double, ptr %4, align 8, !tbaa !102
  %6 = fcmp nsz olt double %5, 9.000000e-01
  br i1 %6, label %7, label %8

7:                                                ; preds = %2
  call void (ptr, i32, ptr, ...) @av_log(ptr noundef null, i32 noundef 16, ptr noundef @.str.41)
  br label %8

8:                                                ; preds = %7, %2
  %9 = load ptr, ptr %3, align 8, !tbaa !114
  %10 = getelementptr inbounds nuw %struct.RateControlEntry, ptr %9, i32 0, i32 1
  %11 = load float, ptr %10, align 4, !tbaa !119
  %12 = fpext nsz float %11 to double
  %13 = load ptr, ptr %3, align 8, !tbaa !114
  %14 = getelementptr inbounds nuw %struct.RateControlEntry, ptr %13, i32 0, i32 6
  %15 = load i32, ptr %14, align 8, !tbaa !137
  %16 = load ptr, ptr %3, align 8, !tbaa !114
  %17 = getelementptr inbounds nuw %struct.RateControlEntry, ptr %16, i32 0, i32 7
  %18 = load i32, ptr %17, align 4, !tbaa !138
  %19 = add nsw i32 %15, %18
  %20 = add nsw i32 %19, 1
  %21 = sitofp i32 %20 to double
  %22 = fmul nsz double %12, %21
  %23 = load double, ptr %4, align 8, !tbaa !102
  %24 = fdiv nsz double %22, %23
  ret double %24
}

; Function Attrs: nounwind uwtable
define internal double @bits2qp_cb(ptr noundef %0, double noundef %1) #0 {
  %3 = alloca ptr, align 8
  %4 = alloca double, align 8
  store ptr %0, ptr %3, align 8, !tbaa !147
  store double %1, ptr %4, align 8, !tbaa !102
  %5 = load ptr, ptr %3, align 8, !tbaa !147
  %6 = load double, ptr %4, align 8, !tbaa !102
  %7 = call nsz double @bits2qp(ptr noundef %5, double noundef %6)
  ret double %7
}